; Function Attrs: mustprogress uwtable
define void @_ZNK16DecodeAsDelegate13setEditorDataEP7QWidgetRK11QModelIndex(ptr noundef nonnull align 8 dereferenceable(48) %0, ptr noundef %1, ptr noundef nonnull align 8 dereferenceable(24) %2) unnamed_addr #0 align 2 personality ptr @__gxx_personality_v0 {
  %4 = alloca %class.QVariant, align 8
  %5 = alloca %class.QString, align 8
  %6 = alloca %class.QVariant, align 8
  %7 = alloca %class.QString, align 8
  %8 = alloca %class.QVariant, align 8
  call void @llvm.lifetime.start.p0(i64 32, ptr nonnull %4)
  %9 = getelementptr inbounds i8, ptr %2, i64 16
  %10 = load ptr, ptr %9, align 8
  %11 = load ptr, ptr %10, align 8
  %12 = getelementptr inbounds i8, ptr %11, i64 144
  %13 = load ptr, ptr %12, align 8
  call void %13(ptr dead_on_unwind nonnull writable sret(%class.QVariant) align 8 %4, ptr noundef nonnull align 8 dereferenceable(16) %10, ptr noundef nonnull align 8 dereferenceable(24) %2, i32 noundef 256)
  %14 = invoke noundef ptr @_Z13qvariant_castIPvET_RK8QVariant(ptr noundef nonnull align 8 dereferenceable(32) %4)
          to label %_ZNK16DecodeAsDelegate12indexToFieldERK11QModelIndex.exit unwind label %15

common.resume:                                    ; preds = %30, %51, %32, %_ZN17QArrayDataPointerIDsE5derefEv.exit.i.i22, %36, %53, %_ZN17QArrayDataPointerIDsE5derefEv.exit.i.i30, %57, %15
  %common.resume.op = phi { ptr, i32 } [ %16, %15 ], [ %52, %51 ], [ %31, %30 ], [ %33, %32 ], [ %33, %_ZN17QArrayDataPointerIDsE5derefEv.exit.i.i22 ], [ %33, %36 ], [ %54, %53 ], [ %54, %_ZN17QArrayDataPointerIDsE5derefEv.exit.i.i30 ], [ %54, %57 ]
  resume { ptr, i32 } %common.resume.op

15:                                               ; preds = %3
  %16 = landingpad { ptr, i32 }
          cleanup
  call void @_ZN8QVariantD1Ev(ptr noundef nonnull align 8 dereferenceable(32) %4) #17
  br label %common.resume

_ZNK16DecodeAsDelegate12indexToFieldERK11QModelIndex.exit: ; preds = %3
  call void @_ZN8QVariantD1Ev(ptr noundef nonnull align 8 dereferenceable(32) %4) #17
  call void @llvm.lifetime.end.p0(i64 32, ptr nonnull %4)
  %17 = getelementptr inbounds i8, ptr %2, i64 4
  %18 = load i32, ptr %17, align 4
  switch i32 %18, label %60 [
    i32 0, label %19
    i32 4, label %19
    i32 1, label %38
  ]

19:                                               ; preds = %_ZNK16DecodeAsDelegate12indexToFieldERK11QModelIndex.exit, %_ZNK16DecodeAsDelegate12indexToFieldERK11QModelIndex.exit
  %20 = load ptr, ptr %9, align 8
  %21 = load ptr, ptr %20, align 8
  %22 = getelementptr inbounds i8, ptr %21, i64 144
  %23 = load ptr, ptr %22, align 8
  call void %23(ptr dead_on_unwind nonnull writable sret(%class.QVariant) align 8 %6, ptr noundef nonnull align 8 dereferenceable(16) %20, ptr noundef nonnull align 8 dereferenceable(24) %2, i32 noundef 2)
  invoke void @_ZNK8QVariant8toStringEv(ptr dead_on_unwind nonnull writable sret(%class.QString) align 8 %5, ptr noundef nonnull align 8 dereferenceable(32) %6)
          to label %24 unwind label %30

24:                                               ; preds = %19
  call void @_ZN8QVariantD1Ev(ptr noundef nonnull align 8 dereferenceable(32) %6) #17
  invoke void @_ZN9QComboBox14setCurrentTextERK7QString(ptr noundef nonnull align 8 dereferenceable(40) %1, ptr noundef nonnull align 8 dereferenceable(24) %5)
          to label %25 unwind label %32

25:                                               ; preds = %24
  %26 = load ptr, ptr %5, align 8
  %.not.i.i.i = icmp eq ptr %26, null
  br i1 %.not.i.i.i, label %_ZN7QStringD2Ev.exit, label %_ZN17QArrayDataPointerIDsE5derefEv.exit.i.i

_ZN17QArrayDataPointerIDsE5derefEv.exit.i.i:      ; preds = %25
  %27 = atomicrmw sub ptr %26, i32 1 seq_cst, align 4
  %.not.i.i = icmp eq i32 %27, 1
  br i1 %.not.i.i, label %28, label %_ZN7QStringD2Ev.exit

28:                                               ; preds = %_ZN17QArrayDataPointerIDsE5derefEv.exit.i.i
  %29 = load ptr, ptr %5, align 8
  call void @_ZN10QArrayData10deallocateEPS_xx(ptr noundef %29, i64 noundef 2, i64 noundef 8) #17
  br label %_ZN7QStringD2Ev.exit

30:                                               ; preds = %19
  %31 = landingpad { ptr, i32 }
          cleanup
  call void @_ZN8QVariantD1Ev(ptr noundef nonnull align 8 dereferenceable(32) %6) #17
  br label %common.resume

32:                                               ; preds = %24
  %33 = landingpad { ptr, i32 }
          cleanup
  %34 = load ptr, ptr %5, align 8
  %.not.i.i.i21 = icmp eq ptr %34, null
  br i1 %.not.i.i.i21, label %common.resume, label %_ZN17QArrayDataPointerIDsE5derefEv.exit.i.i22

_ZN17QArrayDataPointerIDsE5derefEv.exit.i.i22:    ; preds = %32
  %35 = atomicrmw sub ptr %34, i32 1 seq_cst, align 4
  %.not.i.i23 = icmp eq i32 %35, 1
  br i1 %.not.i.i23, label %36, label %common.resume

36:                                               ; preds = %_ZN17QArrayDataPointerIDsE5derefEv.exit.i.i22
  %37 = load ptr, ptr %5, align 8
  call void @_ZN10QArrayData10deallocateEPS_xx(ptr noundef %37, i64 noundef 2, i64 noundef 8) #17
  br label %common.resume

38:                                               ; preds = %_ZNK16DecodeAsDelegate12indexToFieldERK11QModelIndex.exit
  %39 = call noundef zeroext i1 @_ZNK16DecodeAsDelegate15isSelectorComboEP12DecodeAsItem(ptr noundef nonnull align 8 dereferenceable(48) %0, ptr noundef %14)
  br i1 %39, label %40, label %59

40:                                               ; preds = %38
  %41 = load ptr, ptr %9, align 8
  %42 = load ptr, ptr %41, align 8
  %43 = getelementptr inbounds i8, ptr %42, i64 144
  %44 = load ptr, ptr %43, align 8
  call void %44(ptr dead_on_unwind nonnull writable sret(%class.QVariant) align 8 %8, ptr noundef nonnull align 8 dereferenceable(16) %41, ptr noundef nonnull align 8 dereferenceable(24) %2, i32 noundef 2)
  invoke void @_ZNK8QVariant8toStringEv(ptr dead_on_unwind nonnull writable sret(%class.QString) align 8 %7, ptr noundef nonnull align 8 dereferenceable(32) %8)
          to label %45 unwind label %51

45:                                               ; preds = %40
  call void @_ZN8QVariantD1Ev(ptr noundef nonnull align 8 dereferenceable(32) %8) #17
  invoke void @_ZN9QComboBox14setCurrentTextERK7QString(ptr noundef nonnull align 8 dereferenceable(40) %1, ptr noundef nonnull align 8 dereferenceable(24) %7)
          to label %46 unwind label %53

46:                                               ; preds = %45
  %47 = load ptr, ptr %7, align 8
  %.not.i.i.i25 = icmp eq ptr %47, null
  br i1 %.not.i.i.i25, label %_ZN7QStringD2Ev.exit, label %_ZN17QArrayDataPointerIDsE5derefEv.exit.i.i26

_ZN17QArrayDataPointerIDsE5derefEv.exit.i.i26:    ; preds = %46
  %48 = atomicrmw sub ptr %47, i32 1 seq_cst, align 4
  %.not.i.i27 = icmp eq i32 %48, 1
  br i1 %.not.i.i27, label %49, label %_ZN7QStringD2Ev.exit

49:                                               ; preds = %_ZN17QArrayDataPointerIDsE5derefEv.exit.i.i26
  %50 = load ptr, ptr %7, align 8
  call void @_ZN10QArrayData10deallocateEPS_xx(ptr noundef %50, i64 noundef 2, i64 noundef 8) #17
  br label %_ZN7QStringD2Ev.exit

51:                                               ; preds = %40
  %52 = landingpad { ptr, i32 }
          cleanup
  call void @_ZN8QVariantD1Ev(ptr noundef nonnull align 8 dereferenceable(32) %8) #17
  br label %common.resume

53:                                               ; preds = %45
  %54 = landingpad { ptr, i32 }
          cleanup
  %55 = load ptr, ptr %7, align 8
  %.not.i.i.i29 = icmp eq ptr %55, null
  br i1 %.not.i.i.i29, label %common.resume, label %_ZN17QArrayDataPointerIDsE5derefEv.exit.i.i30

_ZN17QArrayDataPointerIDsE5derefEv.exit.i.i30:    ; preds = %53
  %56 = atomicrmw sub ptr %55, i32 1 seq_cst, align 4
  %.not.i.i31 = icmp eq i32 %56, 1
  br i1 %.not.i.i31, label %57, label %common.resume

57:                                               ; preds = %_ZN17QArrayDataPointerIDsE5derefEv.exit.i.i30
  %58 = load ptr, ptr %7, align 8
  call void @_ZN10QArrayData10deallocateEPS_xx(ptr noundef %58, i64 noundef 2, i64 noundef 8) #17
  br label %common.resume

59:                                               ; preds = %38
  call void @_ZNK19QStyledItemDelegate13setEditorDataEP7QWidgetRK11QModelIndex(ptr noundef nonnull align 8 dereferenceable(16) %0, ptr noundef %1, ptr noundef nonnull align 8 dereferenceable(24) %2)
  br label %_ZN7QStringD2Ev.exit

60:                                               ; preds = %_ZNK16DecodeAsDelegate12indexToFieldERK11QModelIndex.exit
  call void @_ZNK19QStyledItemDelegate13setEditorDataEP7QWidgetRK11QModelIndex(ptr noundef nonnull align 8 dereferenceable(16) %0, ptr noundef %1, ptr noundef nonnull align 8 dereferenceable(24) %2)
  br label %_ZN7QStringD2Ev.exit

_ZN7QStringD2Ev.exit:                             ; preds = %49, %_ZN17QArrayDataPointerIDsE5derefEv.exit.i.i26, %46, %28, %_ZN17QArrayDataPointerIDsE5derefEv.exit.i.i, %25, %59, %60
  ret void
}